target datalayout = "e-m:e-p270:32:32-p271:32:32-p272:64:64-i64:64-i128:128-f80:128-n8:16:32:64-S128"
target triple = "x86_64-pc-linux-gnu"

%"class.std::__cxx11::basic_string" = type { %"struct.std::__cxx11::basic_string<char>::_Alloc_hider", i64, %union.anon }
%"struct.std::__cxx11::basic_string<char>::_Alloc_hider" = type { ptr }
%union.anon = type { i64, [8 x i8] }
%"class.std::shared_ptr" = type { %"class.std::__shared_ptr" }
%"class.std::__shared_ptr" = type { ptr, %"class.std::__shared_count" }
%"class.std::__shared_count" = type { ptr }
%"class.open_spiel::go::GoState" = type <{ %"class.open_spiel::State.base", [4 x i8], %"class.open_spiel::go::GoBoard", %"class.std::unordered_set", float, i32, i32, i8, i8, [2 x i8] }>
%"class.open_spiel::State.base" = type <{ ptr, %"class.std::shared_ptr", i32, i32, %"class.std::vector", i32 }>
%"class.std::vector" = type { %"struct.std::_Vector_base" }
%"struct.std::_Vector_base" = type { %"struct.std::_Vector_base<open_spiel::State::PlayerAction, std::allocator<open_spiel::State::PlayerAction>>::_Vector_impl" }
%"struct.std::_Vector_base<open_spiel::State::PlayerAction, std::allocator<open_spiel::State::PlayerAction>>::_Vector_impl" = type { %"struct.std::_Vector_base<open_spiel::State::PlayerAction, std::allocator<open_spiel::State::PlayerAction>>::_Vector_impl_data" }
%"struct.std::_Vector_base<open_spiel::State::PlayerAction, std::allocator<open_spiel::State::PlayerAction>>::_Vector_impl_data" = type { ptr, ptr, ptr }
%"class.open_spiel::go::GoBoard" = type <{ %"struct.std::array", [2 x i8], %"struct.std::array.9", [4 x i8], i64, %"struct.std::array.10", i32, i32, i16, [6 x i8] }>
%"struct.std::array" = type { [441 x %"struct.open_spiel::go::GoBoard::Vertex"] }
%"struct.open_spiel::go::GoBoard::Vertex" = type { i16, i16, i8 }
%"struct.std::array.9" = type { [441 x %"struct.open_spiel::go::GoBoard::Chain"] }
%"struct.open_spiel::go::GoBoard::Chain" = type { i32, i16, i16, i16 }
%"struct.std::array.10" = type { [4 x i16] }
%"class.std::unordered_set" = type { %"class.std::_Hashtable" }
%"class.std::_Hashtable" = type { ptr, i64, %"struct.std::__detail::_Hash_node_base", i64, %"struct.std::__detail::_Prime_rehash_policy", ptr }
%"struct.std::__detail::_Hash_node_base" = type { ptr }
%"struct.std::__detail::_Prime_rehash_policy" = type { float, i64 }
%"struct.std::pair.36" = type <{ %"struct.std::__detail::_Node_iterator", i8, [7 x i8] }>
%"struct.std::__detail::_Node_iterator" = type { %"struct.std::__detail::_Node_iterator_base" }
%"struct.std::__detail::_Node_iterator_base" = type { ptr }
%"struct.std::__detail::_AllocNode" = type { ptr }
%"struct.std::__detail::_Identity" = type { i8 }

@.str.9 = private unnamed_addr constant [124 x i8] c"generated/home/dtcxzyw/WorkSpace/Projects/compilers/llvm-opt-benchmark/bench/openspiel/open_spiel/open_spiel/games/go/go.cc\00", align 1
@.str.10 = private unnamed_addr constant [2 x i8] c":\00", align 1
@.str.28 = private unnamed_addr constant [13 x i8] c" CHECK_TRUE(\00", align 1
@.str.29 = private unnamed_addr constant [64 x i8] c"board_.PlayMove(board_.ActionToVirtualAction(action), to_play_)\00", align 1
@.str.30 = private unnamed_addr constant [2 x i8] c")\00", align 1

; Function Attrs: mustprogress nounwind uwtable
define linkonce_odr noundef nonnull align 8 dereferenceable(8) ptr @_ZNSt10_HashtableImmSaImENSt8__detail9_IdentityESt8equal_toImEN10open_spiel2go7GoState15PassthroughHashENS1_18_Mod_range_hashingENS1_20_Default_ranged_hashENS1_20_Prime_rehash_policyENS1_17_Hashtable_traitsILb1ELb1ELb1EEEE14_S_forward_keyEOm(ptr noundef nonnull align 8 dereferenceable(8) %0) #5 comdat align 2 {
  %2 = alloca ptr, align 8
  store ptr %0, ptr %2, align 8
  %3 = load ptr, ptr %2, align 8
  ret ptr %3
}

; Function Attrs: mustprogress nounwind uwtable
define linkonce_odr noundef nonnull align 8 dereferenceable(8) ptr @_ZNKSt8__detail9_IdentityclImEEOT_S3_(ptr noundef nonnull align 1 dereferenceable(1) %0, ptr noundef nonnull align 8 dereferenceable(8) %1) #5 comdat align 2 {
  %3 = alloca ptr, align 8
  %4 = alloca ptr, align 8
  store ptr %0, ptr %3, align 8
  store ptr %1, ptr %4, align 8
  %5 = load ptr, ptr %4, align 8
  ret ptr %5
}

; Function Attrs: mustprogress uwtable
define linkonce_odr { ptr, i8 } @_ZNSt10_HashtableImmSaImENSt8__detail9_IdentityESt8equal_toImEN10open_spiel2go7GoState15PassthroughHashENS1_18_Mod_range_hashingENS1_20_Default_ranged_hashENS1_20_Prime_rehash_policyENS1_17_Hashtable_traitsILb1ELb1ELb1EEEE9_M_insertImNS1_10_AllocNodeISaINS1_10_Hash_nodeImLb1EEEEEEEESt4pairINS1_14_Node_iteratorImLb1ELb1EEEbEOT_RKT0_St17integral_constantIbLb1EE(ptr noundef nonnull align 8 dereferenceable(56) %0, ptr noundef nonnull align 8 dereferenceable(8) %1, ptr noundef nonnull align 8 dereferenceable(8) %2) #4 comdat align 2 {
  %4 = alloca %"struct.std::pair.36", align 8
  %5 = alloca ptr, align 8
  %6 = alloca ptr, align 8
  %7 = alloca ptr, align 8
  %8 = alloca %"struct.std::__detail::_Identity", align 1
  %9 = alloca { ptr, i8 }, align 8
  store ptr %0, ptr %5, align 8
  store ptr %1, ptr %6, align 8
  store ptr %2, ptr %7, align 8
  %10 = load ptr, ptr %5, align 8
  %11 = load ptr, ptr %6, align 8
  %12 = call noundef nonnull align 8 dereferenceable(8) ptr @_ZNKSt8__detail9_IdentityclImEEOT_S3_(ptr noundef nonnull align 1 dereferenceable(1) %8, ptr noundef nonnull align 8 dereferenceable(8) %11) #3
  %13 = call noundef nonnull align 8 dereferenceable(8) ptr @_ZNSt10_HashtableImmSaImENSt8__detail9_IdentityESt8equal_toImEN10open_spiel2go7GoState15PassthroughHashENS1_18_Mod_range_hashingENS1_20_Default_ranged_hashENS1_20_Prime_rehash_policyENS1_17_Hashtable_traitsILb1ELb1ELb1EEEE14_S_forward_keyEOm(ptr noundef nonnull align 8 dereferenceable(8) %12)
  %14 = load ptr, ptr %6, align 8
  %15 = load ptr, ptr %7, align 8
  %16 = call { ptr, i8 } @_ZNSt10_HashtableImmSaImENSt8__detail9_IdentityESt8equal_toImEN10open_spiel2go7GoState15PassthroughHashENS1_18_Mod_range_hashingENS1_20_Default_ranged_hashENS1_20_Prime_rehash_policyENS1_17_Hashtable_traitsILb1ELb1ELb1EEEE16_M_insert_uniqueImmNS1_10_AllocNodeISaINS1_10_Hash_nodeImLb1EEEEEEEESt4pairINS1_14_Node_iteratorImLb1ELb1EEEbEOT_OT0_RKT1_(ptr noundef nonnull align 8 dereferenceable(56) %10, ptr noundef nonnull align 8 dereferenceable(8) %13, ptr noundef nonnull align 8 dereferenceable(8) %14, ptr noundef nonnull align 8 dereferenceable(8) %15)
  store { ptr, i8 } %16, ptr %9, align 8
  call void @llvm.memcpy.p0.p0.i64(ptr align 8 %4, ptr align 8 %9, i64 9, i1 false)
  %17 = load { ptr, i8 }, ptr %4, align 8
  ret { ptr, i8 } %17
}

; Function Attrs: mustprogress nounwind uwtable
define linkonce_odr void @_ZNSt8__detail10_AllocNodeISaINS_10_Hash_nodeImLb1EEEEEC2ERNS_16_Hashtable_allocIS3_EE(ptr noundef nonnull align 8 dereferenceable(8) %0, ptr noundef nonnull align 1 dereferenceable(1) %1) unnamed_addr #5 comdat align 2 {
  %3 = alloca ptr, align 8
  %4 = alloca ptr, align 8
  store ptr %0, ptr %3, align 8
  store ptr %1, ptr %4, align 8
  %5 = load ptr, ptr %3, align 8
  %6 = getelementptr inbounds nuw %"struct.std::__detail::_AllocNode", ptr %5, i32 0, i32 0
  %7 = load ptr, ptr %4, align 8
  store ptr %7, ptr %6, align 8
  ret void
}

; Function Attrs: mustprogress nounwind uwtable
define linkonce_odr noundef nonnull align 8 dereferenceable(56) ptr @_ZNSt8__detail12_Insert_baseImmSaImENS_9_IdentityESt8equal_toImEN10open_spiel2go7GoState15PassthroughHashENS_18_Mod_range_hashingENS_20_Default_ranged_hashENS_20_Prime_rehash_policyENS_17_Hashtable_traitsILb1ELb1ELb1EEEE20_M_conjure_hashtableEv(ptr noundef nonnull align 1 dereferenceable(1) %0) #5 comdat align 2 {
  %2 = alloca ptr, align 8
  store ptr %0, ptr %2, align 8
  %3 = load ptr, ptr %2, align 8
  ret ptr %3
}

; Function Attrs: mustprogress uwtable
define linkonce_odr { ptr, i8 } @_ZNSt8__detail7_InsertImmSaImENS_9_IdentityESt8equal_toImEN10open_spiel2go7GoState15PassthroughHashENS_18_Mod_range_hashingENS_20_Default_ranged_hashENS_20_Prime_rehash_policyENS_17_Hashtable_traitsILb1ELb1ELb1EEELb1EE6insertEOm(ptr noundef nonnull align 1 dereferenceable(1) %0, ptr noundef nonnull align 8 dereferenceable(8) %1) #4 comdat align 2 {
  %3 = alloca %"struct.std::pair.36", align 8
  %4 = alloca ptr, align 8
  %5 = alloca ptr, align 8
  %6 = alloca ptr, align 8
  %7 = alloca %"struct.std::__detail::_AllocNode", align 8
  %8 = alloca { ptr, i8 }, align 8
  store ptr %0, ptr %4, align 8
  store ptr %1, ptr %5, align 8
  %9 = load ptr, ptr %4, align 8
  %10 = call noundef nonnull align 8 dereferenceable(56) ptr @_ZNSt8__detail12_Insert_baseImmSaImENS_9_IdentityESt8equal_toImEN10open_spiel2go7GoState15PassthroughHashENS_18_Mod_range_hashingENS_20_Default_ranged_hashENS_20_Prime_rehash_policyENS_17_Hashtable_traitsILb1ELb1ELb1EEEE20_M_conjure_hashtableEv(ptr noundef nonnull align 1 dereferenceable(1) %9)
  store ptr %10, ptr %6, align 8
  %11 = load ptr, ptr %6, align 8
  call void @_ZNSt8__detail10_AllocNodeISaINS_10_Hash_nodeImLb1EEEEEC2ERNS_16_Hashtable_allocIS3_EE(ptr noundef nonnull align 8 dereferenceable(8) %7, ptr noundef nonnull align 1 dereferenceable(1) %11)
  %12 = load ptr, ptr %6, align 8
  %13 = load ptr, ptr %5, align 8
  %14 = call { ptr, i8 } @_ZNSt10_HashtableImmSaImENSt8__detail9_IdentityESt8equal_toImEN10open_spiel2go7GoState15PassthroughHashENS1_18_Mod_range_hashingENS1_20_Default_ranged_hashENS1_20_Prime_rehash_policyENS1_17_Hashtable_traitsILb1ELb1ELb1EEEE9_M_insertImNS1_10_AllocNodeISaINS1_10_Hash_nodeImLb1EEEEEEEESt4pairINS1_14_Node_iteratorImLb1ELb1EEEbEOT_RKT0_St17integral_constantIbLb1EE(ptr noundef nonnull align 8 dereferenceable(56) %12, ptr noundef nonnull align 8 dereferenceable(8) %13, ptr noundef nonnull align 8 dereferenceable(8) %7)
  store { ptr, i8 } %14, ptr %8, align 8
  call void @llvm.memcpy.p0.p0.i64(ptr align 8 %3, ptr align 8 %8, i64 9, i1 false)
  %15 = load { ptr, i8 }, ptr %3, align 8
  ret { ptr, i8 } %15
}

; Function Attrs: mustprogress nounwind uwtable
define linkonce_odr noundef i32 @_ZNK10open_spiel2go7GoBoard11pass_actionEv(ptr noundef nonnull align 8 dereferenceable(7970) %0) #5 comdat align 2 {
  %2 = alloca ptr, align 8
  store ptr %0, ptr %2, align 8
  %3 = load ptr, ptr %2, align 8
  %4 = getelementptr inbounds nuw %"class.open_spiel::go::GoBoard", ptr %3, i32 0, i32 7
  %5 = load i32, ptr %4, align 4
  ret i32 %5
}

; Function Attrs: mustprogress uwtable
define linkonce_odr { ptr, i8 } @_ZNSt13unordered_setImN10open_spiel2go7GoState15PassthroughHashESt8equal_toImESaImEE6insertEOm(ptr noundef nonnull align 8 dereferenceable(56) %0, ptr noundef nonnull align 8 dereferenceable(8) %1) #4 comdat align 2 {
  %3 = alloca %"struct.std::pair.36", align 8
  %4 = alloca ptr, align 8
  %5 = alloca ptr, align 8
  %6 = alloca { ptr, i8 }, align 8
  store ptr %0, ptr %4, align 8
  store ptr %1, ptr %5, align 8
  %7 = load ptr, ptr %4, align 8
  %8 = getelementptr inbounds nuw %"class.std::unordered_set", ptr %7, i32 0, i32 0
  %9 = load ptr, ptr %5, align 8
  %10 = call { ptr, i8 } @_ZNSt8__detail7_InsertImmSaImENS_9_IdentityESt8equal_toImEN10open_spiel2go7GoState15PassthroughHashENS_18_Mod_range_hashingENS_20_Default_ranged_hashENS_20_Prime_rehash_policyENS_17_Hashtable_traitsILb1ELb1ELb1EEELb1EE6insertEOm(ptr noundef nonnull align 1 dereferenceable(1) %8, ptr noundef nonnull align 8 dereferenceable(8) %9)
  store { ptr, i8 } %10, ptr %6, align 8
  call void @llvm.memcpy.p0.p0.i64(ptr align 8 %3, ptr align 8 %6, i64 9, i1 false)
  %11 = load { ptr, i8 }, ptr %3, align 8
  ret { ptr, i8 } %11
}

; Function Attrs: mustprogress nounwind uwtable
define linkonce_odr noundef i64 @_ZNK10open_spiel2go7GoBoard9HashValueEv(ptr noundef nonnull align 8 dereferenceable(7970) %0) #5 comdat align 2 {
  %2 = alloca ptr, align 8
  store ptr %0, ptr %2, align 8
  %3 = load ptr, ptr %2, align 8
  %4 = getelementptr inbounds nuw %"class.open_spiel::go::GoBoard", ptr %3, i32 0, i32 4
  %5 = load i64, ptr %4, align 8
  ret i64 %5
}

; Function Attrs: mustprogress uwtable
define linkonce_odr noundef i32 @_ZNK10open_spiel2go7GoBoard21ActionToVirtualActionEl(ptr noundef nonnull align 8 dereferenceable(7970) %0, i64 noundef %1) #4 comdat align 2 {
  %3 = alloca ptr, align 8
  %4 = alloca i64, align 8
  store ptr %0, ptr %3, align 8
  store i64 %1, ptr %4, align 8
  %5 = load ptr, ptr %3, align 8
  %6 = load i64, ptr %4, align 8
  %7 = getelementptr inbounds nuw %"class.open_spiel::go::GoBoard", ptr %5, i32 0, i32 6
  %8 = load i32, ptr %7, align 8
  %9 = call noundef i32 @_ZN10open_spiel2go21ActionToVirtualActionEli(i64 noundef %6, i32 noundef %8)
  ret i32 %9
}

; Function Attrs: mustprogress uwtable
define void @_ZN10open_spiel2go7GoState13DoApplyActionEl(ptr noundef nonnull align 8 dereferenceable(8110) %0, i64 noundef %1) unnamed_addr #4 align 2 personality ptr @__gxx_personality_v0 {
  %3 = alloca ptr, align 8
  %4 = alloca i64, align 8
  %5 = alloca %"class.std::__cxx11::basic_string", align 8
  %6 = alloca i32, align 4
  %7 = alloca ptr, align 8
  %8 = alloca i32, align 4
  %9 = alloca i8, align 1
  %10 = alloca %"struct.std::pair.36", align 8
  %11 = alloca i64, align 8
  %12 = alloca { ptr, i8 }, align 8
  store ptr %0, ptr %3, align 8
  store i64 %1, ptr %4, align 8
  %13 = load ptr, ptr %3, align 8
  br label %14

14:                                               ; preds = %2
  %15 = getelementptr inbounds nuw %"class.open_spiel::go::GoState", ptr %13, i32 0, i32 2
  %16 = getelementptr inbounds nuw %"class.open_spiel::go::GoState", ptr %13, i32 0, i32 2
  %17 = load i64, ptr %4, align 8
  %18 = call noundef i32 @_ZNK10open_spiel2go7GoBoard21ActionToVirtualActionEl(ptr noundef nonnull align 8 dereferenceable(7970) %16, i64 noundef %17)
  %19 = trunc i32 %18 to i16
  %20 = getelementptr inbounds nuw %"class.open_spiel::go::GoState", ptr %13, i32 0, i32 7
  %21 = load i8, ptr %20, align 4
  %22 = call noundef zeroext i1 @_ZN10open_spiel2go7GoBoard8PlayMoveEtNS0_7GoColorE(ptr noundef nonnull align 8 dereferenceable(7970) %15, i16 noundef zeroext %19, i8 noundef zeroext %21)
  %23 = xor i1 %22, true
  br i1 %23, label %24, label %30

24:                                               ; preds = %14
  store i32 209, ptr %6, align 4
  call void @_ZN10open_spiel8internal11SpielStrCatIJRA124_KcRA2_S2_iRA13_S2_RA64_S2_S6_EEENSt7__cxx1112basic_stringIcSt11char_traitsIcESaIcEEEDpOT_(ptr dead_on_unwind writable sret(%"class.std::__cxx11::basic_string") align 8 %5, ptr noundef nonnull align 1 dereferenceable(124) @.str.9, ptr noundef nonnull align 1 dereferenceable(2) @.str.10, ptr noundef nonnull align 4 dereferenceable(4) %6, ptr noundef nonnull align 1 dereferenceable(13) @.str.28, ptr noundef nonnull align 1 dereferenceable(64) @.str.29, ptr noundef nonnull align 1 dereferenceable(2) @.str.30)
  invoke void @_ZN10open_spiel15SpielFatalErrorERKNSt7__cxx1112basic_stringIcSt11char_traitsIcESaIcEEE(ptr noundef nonnull align 8 dereferenceable(32) %5) #14
          to label %25 unwind label %26

25:                                               ; preds = %24
  unreachable

26:                                               ; preds = %24
  %27 = landingpad { ptr, i32 }
          cleanup
  %28 = extractvalue { ptr, i32 } %27, 0
  store ptr %28, ptr %7, align 8
  %29 = extractvalue { ptr, i32 } %27, 1
  store i32 %29, ptr %8, align 4
  call void @_ZNSt7__cxx1112basic_stringIcSt11char_traitsIcESaIcEED1Ev(ptr noundef nonnull align 8 dereferenceable(32) %5) #3
  br label %54

30:                                               ; preds = %14
  %31 = getelementptr inbounds nuw %"class.open_spiel::go::GoState", ptr %13, i32 0, i32 7
  %32 = load i8, ptr %31, align 4
  %33 = call noundef zeroext i8 @_ZN10open_spiel2go8OppColorENS0_7GoColorE(i8 noundef zeroext %32)
  %34 = getelementptr inbounds nuw %"class.open_spiel::go::GoState", ptr %13, i32 0, i32 7
  store i8 %33, ptr %34, align 4
  %35 = getelementptr inbounds nuw %"class.open_spiel::go::GoState", ptr %13, i32 0, i32 3
  %36 = getelementptr inbounds nuw %"class.open_spiel::go::GoState", ptr %13, i32 0, i32 2
  %37 = call noundef i64 @_ZNK10open_spiel2go7GoBoard9HashValueEv(ptr noundef nonnull align 8 dereferenceable(7970) %36)
  store i64 %37, ptr %11, align 8
  %38 = call { ptr, i8 } @_ZNSt13unordered_setImN10open_spiel2go7GoState15PassthroughHashESt8equal_toImESaImEE6insertEOm(ptr noundef nonnull align 8 dereferenceable(56) %35, ptr noundef nonnull align 8 dereferenceable(8) %11)
  store { ptr, i8 } %38, ptr %12, align 8
  call void @llvm.memcpy.p0.p0.i64(ptr align 8 %10, ptr align 8 %12, i64 9, i1 false)
  %39 = getelementptr inbounds nuw %"struct.std::pair.36", ptr %10, i32 0, i32 1
  %40 = load i8, ptr %39, align 8
  %41 = trunc i8 %40 to i1
  %42 = zext i1 %41 to i8
  store i8 %42, ptr %9, align 1
  %43 = load i8, ptr %9, align 1
  %44 = trunc i8 %43 to i1
  br i1 %44, label %53, label %45

45:                                               ; preds = %30
  %46 = load i64, ptr %4, align 8
  %47 = getelementptr inbounds nuw %"class.open_spiel::go::GoState", ptr %13, i32 0, i32 2
  %48 = call noundef i32 @_ZNK10open_spiel2go7GoBoard11pass_actionEv(ptr noundef nonnull align 8 dereferenceable(7970) %47)
  %49 = sext i32 %48 to i64
  %50 = icmp ne i64 %46, %49
  br i1 %50, label %51, label %53

51:                                               ; preds = %45
  %52 = getelementptr inbounds nuw %"class.open_spiel::go::GoState", ptr %13, i32 0, i32 8
  store i8 1, ptr %52, align 1
  br label %53

53:                                               ; preds = %51, %45, %30
  ret void

54:                                               ; preds = %26
  %55 = load ptr, ptr %7, align 8
  %56 = load i32, ptr %8, align 4
  %57 = insertvalue { ptr, i32 } poison, ptr %55, 0
  %58 = insertvalue { ptr, i32 } %57, i32 %56, 1
  resume { ptr, i32 } %58
}