; Function Attrs: mustprogress uwtable
define void @_ZN10open_spiel2go7GoState13DoApplyActionEl(ptr noundef nonnull align 8 dereferenceable(8110) %0, i64 noundef %1) unnamed_addr #3 align 2 personality ptr @__gxx_personality_v0 {
  %3 = alloca %"struct.std::__detail::_AllocNode", align 8
  %4 = alloca %"class.std::__cxx11::basic_string", align 8
  %5 = alloca i32, align 4
  %6 = alloca i64, align 8
  %7 = getelementptr inbounds nuw i8, ptr %0, i64 64
  %8 = getelementptr inbounds nuw i8, ptr %0, i64 8024
  %9 = load i32, ptr %8, align 8
  %10 = tail call noundef i32 @_ZN10open_spiel2go21ActionToVirtualActionEli(i64 noundef %1, i32 noundef %9)
  %11 = trunc i32 %10 to i16
  %12 = getelementptr inbounds nuw i8, ptr %0, i64 8108
  %13 = load i8, ptr %12, align 4
  %14 = tail call noundef zeroext i1 @_ZN10open_spiel2go7GoBoard8PlayMoveEtNS0_7GoColorE(ptr noundef nonnull align 8 dereferenceable(7970) %7, i16 noundef zeroext %11, i8 noundef zeroext %13)
  br i1 %14, label %19, label %15

15:                                               ; preds = %2
  store i32 209, ptr %5, align 4
  call void @_ZN10open_spiel8internal11SpielStrCatIJRA124_KcRA2_S2_iRA13_S2_RA64_S2_S6_EEENSt7__cxx1112basic_stringIcSt11char_traitsIcESaIcEEEDpOT_(ptr dead_on_unwind nonnull writable sret(%"class.std::__cxx11::basic_string") align 8 %4, ptr noundef nonnull align 1 dereferenceable(124) @.str.9, ptr noundef nonnull align 1 dereferenceable(2) @.str.10, ptr noundef nonnull align 4 dereferenceable(4) %5, ptr noundef nonnull align 1 dereferenceable(13) @.str.28, ptr noundef nonnull align 1 dereferenceable(64) @.str.29, ptr noundef nonnull align 1 dereferenceable(2) @.str.30)
  invoke void @_ZN10open_spiel15SpielFatalErrorERKNSt7__cxx1112basic_stringIcSt11char_traitsIcESaIcEEE(ptr noundef nonnull align 8 dereferenceable(32) %4) #23
          to label %16 unwind label %17

16:                                               ; preds = %15
  unreachable

17:                                               ; preds = %15
  %18 = landingpad { ptr, i32 }
          cleanup
  call void @_ZNSt7__cxx1112basic_stringIcSt11char_traitsIcESaIcEED1Ev(ptr noundef nonnull align 8 dereferenceable(32) %4) #24
  resume { ptr, i32 } %18

19:                                               ; preds = %2
  %20 = load i8, ptr %12, align 4
  %21 = tail call noundef zeroext i8 @_ZN10open_spiel2go8OppColorENS0_7GoColorE(i8 noundef zeroext %20)
  store i8 %21, ptr %12, align 4
  %22 = getelementptr inbounds nuw i8, ptr %0, i64 8040
  %23 = getelementptr inbounds nuw i8, ptr %0, i64 8008
  %24 = load i64, ptr %23, align 8
  store i64 %24, ptr %6, align 8
  call void @llvm.lifetime.start.p0(i64 8, ptr nonnull %3)
  store ptr %22, ptr %3, align 8
  %25 = call { ptr, i8 } @_ZNSt10_HashtableImmSaImENSt8__detail9_IdentityESt8equal_toImEN10open_spiel2go7GoState15PassthroughHashENS1_18_Mod_range_hashingENS1_20_Default_ranged_hashENS1_20_Prime_rehash_policyENS1_17_Hashtable_traitsILb1ELb1ELb1EEEE16_M_insert_uniqueImmNS1_10_AllocNodeISaINS1_10_Hash_nodeImLb1EEEEEEEESt4pairINS1_14_Node_iteratorImLb1ELb1EEEbEOT_OT0_RKT1_(ptr noundef nonnull align 8 dereferenceable(56) %22, ptr noundef nonnull align 8 dereferenceable(8) %6, ptr noundef nonnull align 8 dereferenceable(8) %6, ptr noundef nonnull align 8 dereferenceable(8) %3)
  call void @llvm.lifetime.end.p0(i64 8, ptr nonnull %3)
  %.fca.1.extract = extractvalue { ptr, i8 } %25, 1
  %26 = trunc i8 %.fca.1.extract to i1
  %27 = getelementptr inbounds nuw i8, ptr %0, i64 8028
  %28 = load i32, ptr %27, align 4
  %29 = sext i32 %28 to i64
  %.not = icmp eq i64 %1, %29
  %or.cond = select i1 %26, i1 true, i1 %.not
  br i1 %or.cond, label %32, label %30

30:                                               ; preds = %19
  %31 = getelementptr inbounds nuw i8, ptr %0, i64 8109
  store i8 1, ptr %31, align 1
  br label %32

32:                                               ; preds = %30, %19
  ret void
}